target datalayout = "e-m:e-p270:32:32-p271:32:32-p272:64:64-i64:64-i128:128-f80:128-n8:16:32:64-S128"
target triple = "x86_64-pc-linux-gnu"

%struct.H5F_t = type { ptr, ptr, ptr, ptr, i32, ptr, i8, i8, ptr, i32 }
%struct.H5F_shared_t = type { ptr, ptr, ptr, i8, i32, i32, %struct.H5F_mtab_t, ptr, i8, i8, i64, i32, i32, i64, i64, ptr, ptr, %struct.H5AC_cache_config_t, %struct.H5AC_cache_image_config_t, i8, i8, ptr, i64, i32, i8, i64, i64, double, i64, i64, i64, i32, i32, i32, i8, i32, ptr, ptr, ptr, ptr, i8, i8, i8, i64, ptr, ptr, i32, i64, i8, i32, i8, i64, i8, [13 x i32], [13 x i64], [13 x ptr], i8, i64, i64, [7 x i32], [7 x i32], %struct.H5F_blk_aggr_t, %struct.H5F_blk_aggr_t, i64, i64, %struct.H5F_meta_accum_t, i32, i32, [30 x ptr], %struct.H5F_object_flush_t, i8, ptr }
%struct.H5F_mtab_t = type { i32, i32, ptr }
%struct.H5AC_cache_config_t = type { i32, i8, i8, i8, [1025 x i8], i8, i8, i64, double, i64, i64, i64, i32, double, double, i8, i64, i32, double, double, i32, double, double, i8, i64, i32, i8, double, i64, i32 }
%struct.H5AC_cache_image_config_t = type { i32, i8, i8, i32 }
%struct.H5F_blk_aggr_t = type { i64, i64, i64, i64, i64 }
%struct.H5F_meta_accum_t = type { ptr, i64, i64, i64, i64, i64, i8 }
%struct.H5F_object_flush_t = type { ptr, ptr }

@H5F_init_g = external global i8, align 1
@H5_libterm_g = external global i8, align 1
@.str.1 = private unnamed_addr constant [102 x i8] c"generated/home/dtcxzyw/WorkSpace/Projects/compilers/llvm-opt-benchmark/bench/hdf5/hdf5/src/H5Fsuper.c\00", align 1
@H5E_FILE_g = external global i64, align 8
@H5E_CANTINIT_g = external global i64, align 8
@H5E_FUNC_g = external global i64, align 8
@.str.88 = private unnamed_addr constant [32 x i8] c"interface initialization failed\00", align 1
@H5E_CANTMARKDIRTY_g = external global i64, align 8
@.str.89 = private unnamed_addr constant [35 x i8] c"unable to mark superblock as dirty\00", align 1
@__func__.H5F_super_dirty = private unnamed_addr constant [16 x i8] c"H5F_super_dirty\00", align 1

; Function Attrs: nounwind uwtable
define i32 @H5F_super_dirty(ptr noundef %0) #0 {
  %2 = alloca ptr, align 8
  %3 = alloca i32, align 4
  %4 = alloca i8, align 1
  store ptr %0, ptr %2, align 8, !tbaa !3
  call void @llvm.lifetime.start.p0(i64 4, ptr %3) #7
  store i32 0, ptr %3, align 4, !tbaa !12
  call void @llvm.lifetime.start.p0(i64 1, ptr %4) #7
  store i8 0, ptr %4, align 1, !tbaa !14
  %5 = load i8, ptr @H5F_init_g, align 1, !tbaa !14, !range !16, !noundef !17
  %6 = trunc i8 %5 to i1
  br i1 %6, label %11, label %7

7:                                                ; preds = %1
  %8 = load i8, ptr @H5_libterm_g, align 1, !tbaa !14, !range !16, !noundef !17
  %9 = trunc i8 %8 to i1
  %10 = xor i1 %9, true
  br label %11

11:                                               ; preds = %7, %1
  %12 = phi i1 [ false, %1 ], [ %10, %7 ]
  %13 = xor i1 %12, true
  %14 = xor i1 %13, true
  %15 = zext i1 %14 to i32
  %16 = sext i32 %15 to i64
  %17 = call i64 @llvm.expect.i64(i64 %16, i64 0)
  %18 = icmp ne i64 %17, 0
  br i1 %18, label %19, label %42

19:                                               ; preds = %11
  store i8 1, ptr @H5F_init_g, align 1, !tbaa !14
  %20 = call i32 @H5F__init_package()
  %21 = icmp slt i32 %20, 0
  br i1 %21, label %22, label %41

22:                                               ; preds = %19
  store i8 0, ptr @H5F_init_g, align 1, !tbaa !14
  br label %23

23:                                               ; preds = %22
  br label %24

24:                                               ; preds = %23
  br label %25

25:                                               ; preds = %24
  %26 = load i64, ptr @H5E_FUNC_g, align 8, !tbaa !8
  %27 = load i64, ptr @H5E_CANTINIT_g, align 8, !tbaa !8
  %28 = call i32 (ptr, ptr, i32, i64, i64, ptr, ...) @H5E_printf_stack(ptr noundef @.str.1, ptr noundef @__func__.H5F_super_dirty, i32 noundef 1544, i64 noundef %26, i64 noundef %27, ptr noundef @.str.88)
  br label %29

29:                                               ; preds = %25
  br label %30

30:                                               ; preds = %29
  store i8 1, ptr %4, align 1, !tbaa !14
  %31 = load i8, ptr %4, align 1, !tbaa !14, !range !16, !noundef !17
  %32 = trunc i8 %31 to i1
  %33 = zext i1 %32 to i8
  store i8 %33, ptr %4, align 1, !tbaa !14
  br label %34

34:                                               ; preds = %30
  br label %35

35:                                               ; preds = %34
  br label %36

36:                                               ; preds = %35
  store i32 -1, ptr %3, align 4, !tbaa !12
  br label %85

37:                                               ; No predecessors!
  br label %38

38:                                               ; preds = %37
  br label %39

39:                                               ; preds = %38
  br label %40

40:                                               ; preds = %39
  br label %41

41:                                               ; preds = %40, %19
  br label %42

42:                                               ; preds = %41, %11
  %43 = load i8, ptr @H5F_init_g, align 1, !tbaa !14, !range !16, !noundef !17
  %44 = trunc i8 %43 to i1
  br i1 %44, label %49, label %45

45:                                               ; preds = %42
  %46 = load i8, ptr @H5_libterm_g, align 1, !tbaa !14, !range !16, !noundef !17
  %47 = trunc i8 %46 to i1
  %48 = xor i1 %47, true
  br label %49

49:                                               ; preds = %45, %42
  %50 = phi i1 [ true, %42 ], [ %48, %45 ]
  %51 = xor i1 %50, true
  %52 = xor i1 %51, true
  %53 = zext i1 %52 to i32
  %54 = sext i32 %53 to i64
  %55 = call i64 @llvm.expect.i64(i64 %54, i64 1)
  %56 = icmp ne i64 %55, 0
  br i1 %56, label %57, label %86

57:                                               ; preds = %49
  %58 = load ptr, ptr %2, align 8, !tbaa !3
  %59 = getelementptr inbounds nuw %struct.H5F_t, ptr %58, i32 0, i32 2
  %60 = load ptr, ptr %59, align 8, !tbaa !31
  %61 = getelementptr inbounds nuw %struct.H5F_shared_t, ptr %60, i32 0, i32 1
  %62 = load ptr, ptr %61, align 8, !tbaa !109
  %63 = call i32 @H5AC_mark_entry_dirty(ptr noundef %62)
  %64 = icmp slt i32 %63, 0
  br i1 %64, label %65, label %84

65:                                               ; preds = %57
  br label %66

66:                                               ; preds = %65
  br label %67

67:                                               ; preds = %66
  br label %68

68:                                               ; preds = %67
  %69 = load i64, ptr @H5E_FILE_g, align 8, !tbaa !8
  %70 = load i64, ptr @H5E_CANTMARKDIRTY_g, align 8, !tbaa !8
  %71 = call i32 (ptr, ptr, i32, i64, i64, ptr, ...) @H5E_printf_stack(ptr noundef @.str.1, ptr noundef @__func__.H5F_super_dirty, i32 noundef 1553, i64 noundef %69, i64 noundef %70, ptr noundef @.str.89)
  br label %72

72:                                               ; preds = %68
  br label %73

73:                                               ; preds = %72
  store i8 1, ptr %4, align 1, !tbaa !14
  %74 = load i8, ptr %4, align 1, !tbaa !14, !range !16, !noundef !17
  %75 = trunc i8 %74 to i1
  %76 = zext i1 %75 to i8
  store i8 %76, ptr %4, align 1, !tbaa !14
  br label %77

77:                                               ; preds = %73
  br label %78

78:                                               ; preds = %77
  br label %79

79:                                               ; preds = %78
  store i32 -1, ptr %3, align 4, !tbaa !12
  br label %85

80:                                               ; No predecessors!
  br label %81

81:                                               ; preds = %80
  br label %82

82:                                               ; preds = %81
  br label %83

83:                                               ; preds = %82
  br label %84

84:                                               ; preds = %83, %57
  br label %85

85:                                               ; preds = %84, %79, %36
  br label %86

86:                                               ; preds = %85, %49
  %87 = load i32, ptr %3, align 4, !tbaa !12
  call void @llvm.lifetime.end.p0(i64 1, ptr %4) #7
  call void @llvm.lifetime.end.p0(i64 4, ptr %3) #7
  ret i32 %87
}