; Function Attrs: nounwind uwtable
define range(i32 -1, 1) i32 @H5F_super_dirty(ptr noundef readonly captures(none) %0) local_unnamed_addr #0 {
  %2 = load i8, ptr @H5F_init_g, align 1, !tbaa !3, !range !7, !noundef !8
  %3 = trunc nuw i8 %2 to i1
  %4 = load i8, ptr @H5_libterm_g, align 1, !range !7
  %5 = trunc nuw i8 %4 to i1
  %6 = select i1 %3, i1 true, i1 %5
  br i1 %6, label %14, label %7, !prof !9

7:                                                ; preds = %1
  store i8 1, ptr @H5F_init_g, align 1, !tbaa !3
  %8 = tail call i32 @H5F__init_package() #6
  %9 = icmp slt i32 %8, 0
  br i1 %9, label %10, label %._crit_edge

._crit_edge:                                      ; preds = %7
  %.pre = load i8, ptr @H5F_init_g, align 1, !tbaa !3, !range !7
  %.pre3 = load i8, ptr @H5_libterm_g, align 1, !range !7
  %.pre4 = trunc nuw i8 %.pre to i1
  %.pre5 = trunc nuw i8 %.pre3 to i1
  br label %14

10:                                               ; preds = %7
  store i8 0, ptr @H5F_init_g, align 1, !tbaa !3
  %11 = load i64, ptr @H5E_FUNC_g, align 8, !tbaa !16
  %12 = load i64, ptr @H5E_CANTINIT_g, align 8, !tbaa !16
  %13 = tail call i32 (ptr, ptr, i32, i64, i64, ptr, ...) @H5E_printf_stack(ptr noundef nonnull @.str.1, ptr noundef nonnull @__func__.H5F_super_dirty, i32 noundef 1544, i64 noundef %11, i64 noundef %12, ptr noundef nonnull @.str.88) #6
  br label %28

14:                                               ; preds = %._crit_edge, %1
  %.pre-phi6 = phi i1 [ %.pre5, %._crit_edge ], [ %5, %1 ]
  %.pre-phi = phi i1 [ %.pre4, %._crit_edge ], [ %3, %1 ]
  %15 = xor i1 %.pre-phi6, true
  %16 = select i1 %.pre-phi, i1 true, i1 %15
  br i1 %16, label %17, label %28, !prof !9

17:                                               ; preds = %14
  %18 = getelementptr inbounds nuw i8, ptr %0, i64 16
  %19 = load ptr, ptr %18, align 8, !tbaa !25
  %20 = getelementptr inbounds nuw i8, ptr %19, i64 8
  %21 = load ptr, ptr %20, align 8, !tbaa !102
  %22 = tail call i32 @H5AC_mark_entry_dirty(ptr noundef %21) #6
  %23 = icmp slt i32 %22, 0
  br i1 %23, label %24, label %28

24:                                               ; preds = %17
  %25 = load i64, ptr @H5E_FILE_g, align 8, !tbaa !16
  %26 = load i64, ptr @H5E_CANTMARKDIRTY_g, align 8, !tbaa !16
  %27 = tail call i32 (ptr, ptr, i32, i64, i64, ptr, ...) @H5E_printf_stack(ptr noundef nonnull @.str.1, ptr noundef nonnull @__func__.H5F_super_dirty, i32 noundef 1553, i64 noundef %25, i64 noundef %26, ptr noundef nonnull @.str.89) #6
  br label %28

28:                                               ; preds = %10, %24, %17, %14
  %.0 = phi i32 [ -1, %10 ], [ -1, %24 ], [ 0, %17 ], [ 0, %14 ]
  ret i32 %.0
}